; Function Attrs: mustprogress uwtable
define hidden void @_ZN11th_rewriterC2ER11ast_managerRK10params_ref(ptr noundef nonnull align 8 dereferenceable(16) %this, ptr noundef nonnull align 8 dereferenceable(976) %m, ptr noundef nonnull align 8 dereferenceable(8) %p) unnamed_addr #3 align 2 personality ptr @__gxx_personality_v0 {
entry:
  %m_params = getelementptr inbounds i8, ptr %this, i64 8
  tail call void @_ZN10params_refC1ERKS_(ptr noundef nonnull align 8 dereferenceable(8) %m_params, ptr noundef nonnull align 8 dereferenceable(8) %p)
  %call = invoke noalias noundef ptr @_ZN6memory8allocateEm(i64 noundef 3128)
          to label %invoke.cont unwind label %lpad

invoke.cont:                                      ; preds = %entry
  invoke void @_ZN11th_rewriter3impC2ER11ast_managerRK10params_ref(ptr noundef nonnull align 8 dereferenceable(3128) %call, ptr noundef nonnull align 8 dereferenceable(976) %m, ptr noundef nonnull align 8 dereferenceable(8) %p)
          to label %invoke.cont2 unwind label %lpad

invoke.cont2:                                     ; preds = %invoke.cont
  store ptr %call, ptr %this, align 8
  ret void

lpad:                                             ; preds = %invoke.cont, %entry
  %0 = landingpad { ptr, i32 }
          cleanup
  tail call void @_ZN10params_refD1Ev(ptr noundef nonnull align 8 dereferenceable(8) %m_params) #18
  resume { ptr, i32 } %0
}